target datalayout = "e-m:e-p270:32:32-p271:32:32-p272:64:64-i64:64-i128:128-f80:128-n8:16:32:64-S128"
target triple = "x86_64-pc-linux-gnu"

@.str = private unnamed_addr constant [10 x i8] c"image/gif\00", align 1
@.str.1 = private unnamed_addr constant [11 x i8] c"image/jpeg\00", align 1
@.str.2 = private unnamed_addr constant [10 x i8] c"image/png\00", align 1
@.str.3 = private unnamed_addr constant [30 x i8] c"application/x-shockwave-flash\00", align 1
@.str.4 = private unnamed_addr constant [10 x i8] c"image/psd\00", align 1
@.str.5 = private unnamed_addr constant [10 x i8] c"image/bmp\00", align 1
@.str.6 = private unnamed_addr constant [11 x i8] c"image/tiff\00", align 1
@.str.7 = private unnamed_addr constant [10 x i8] c"image/iff\00", align 1
@.str.8 = private unnamed_addr constant [19 x i8] c"image/vnd.wap.wbmp\00", align 1
@.str.9 = private unnamed_addr constant [25 x i8] c"application/octet-stream\00", align 1
@.str.10 = private unnamed_addr constant [10 x i8] c"image/jp2\00", align 1
@.str.11 = private unnamed_addr constant [10 x i8] c"image/xbm\00", align 1
@.str.12 = private unnamed_addr constant [25 x i8] c"image/vnd.microsoft.icon\00", align 1
@.str.13 = private unnamed_addr constant [11 x i8] c"image/webp\00", align 1
@.str.14 = private unnamed_addr constant [11 x i8] c"image/avif\00", align 1

; Function Attrs: nounwind uwtable
define ptr @php_image_type_to_mime_type(i32 noundef %0) #0 {
  %2 = alloca ptr, align 8
  %3 = alloca i32, align 4
  store i32 %0, ptr %3, align 4
  %4 = load i32, ptr %3, align 4
  switch i32 %4, label %20 [
    i32 1, label %5
    i32 2, label %6
    i32 3, label %7
    i32 4, label %8
    i32 13, label %8
    i32 5, label %9
    i32 6, label %10
    i32 7, label %11
    i32 8, label %11
    i32 14, label %12
    i32 15, label %13
    i32 9, label %14
    i32 10, label %15
    i32 16, label %16
    i32 17, label %17
    i32 18, label %18
    i32 19, label %19
    i32 0, label %21
  ]

5:                                                ; preds = %1
  store ptr @.str, ptr %2, align 8
  br label %22

6:                                                ; preds = %1
  store ptr @.str.1, ptr %2, align 8
  br label %22

7:                                                ; preds = %1
  store ptr @.str.2, ptr %2, align 8
  br label %22

8:                                                ; preds = %1, %1
  store ptr @.str.3, ptr %2, align 8
  br label %22

9:                                                ; preds = %1
  store ptr @.str.4, ptr %2, align 8
  br label %22

10:                                               ; preds = %1
  store ptr @.str.5, ptr %2, align 8
  br label %22

11:                                               ; preds = %1, %1
  store ptr @.str.6, ptr %2, align 8
  br label %22

12:                                               ; preds = %1
  store ptr @.str.7, ptr %2, align 8
  br label %22

13:                                               ; preds = %1
  store ptr @.str.8, ptr %2, align 8
  br label %22

14:                                               ; preds = %1
  store ptr @.str.9, ptr %2, align 8
  br label %22

15:                                               ; preds = %1
  store ptr @.str.10, ptr %2, align 8
  br label %22

16:                                               ; preds = %1
  store ptr @.str.11, ptr %2, align 8
  br label %22

17:                                               ; preds = %1
  store ptr @.str.12, ptr %2, align 8
  br label %22

18:                                               ; preds = %1
  store ptr @.str.13, ptr %2, align 8
  br label %22

19:                                               ; preds = %1
  store ptr @.str.14, ptr %2, align 8
  br label %22

20:                                               ; preds = %1
  br label %21

21:                                               ; preds = %20, %1
  store ptr @.str.9, ptr %2, align 8
  br label %22

22:                                               ; preds = %21, %19, %18, %17, %16, %15, %14, %13, %12, %11, %10, %9, %8, %7, %6, %5
  %23 = load ptr, ptr %2, align 8
  ret ptr %23
}